target datalayout = "e-m:e-p270:32:32-p271:32:32-p272:64:64-i64:64-i128:128-f80:128-n8:16:32:64-S128"
target triple = "x86_64-pc-linux-gnu"

%struct.sockaddr = type { i16, [14 x i8] }

@.str.6 = private unnamed_addr constant [64 x i8] c"unhandled sa_family %d passed to pmix_net_addr_isipv6linklocal\0A\00", align 1

; Function Attrs: nounwind uwtable
define zeroext i1 @pmix_net_addr_isipv6linklocal(ptr noundef %0) #0 {
  %2 = alloca i1, align 1
  %3 = alloca ptr, align 8
  store ptr %0, ptr %3, align 8, !tbaa !26
  %4 = load ptr, ptr %3, align 8, !tbaa !26
  %5 = getelementptr inbounds nuw %struct.sockaddr, ptr %4, i32 0, i32 0
  %6 = load i16, ptr %5, align 2, !tbaa !27
  %7 = zext i16 %6 to i32
  switch i32 %7, label %9 [
    i32 2, label %8
  ]

8:                                                ; preds = %1
  store i1 false, ptr %2, align 1
  br label %15

9:                                                ; preds = %1
  %10 = load ptr, ptr %3, align 8, !tbaa !26
  %11 = getelementptr inbounds nuw %struct.sockaddr, ptr %10, i32 0, i32 0
  %12 = load i16, ptr %11, align 2, !tbaa !27
  %13 = zext i16 %12 to i32
  call void (i32, ptr, ...) @pmix_output(i32 noundef 0, ptr noundef @.str.6, i32 noundef %13)
  br label %14

14:                                               ; preds = %9
  store i1 false, ptr %2, align 1
  br label %15

15:                                               ; preds = %14, %8
  %16 = load i1, ptr %2, align 1
  ret i1 %16
}