; Function Attrs: nounwind uwtable
define noundef zeroext i1 @pmix_net_addr_isipv6linklocal(ptr noundef readonly captures(none) %0) local_unnamed_addr #0 {
  %2 = load i16, ptr %0, align 2, !tbaa !22
  %cond = icmp eq i16 %2, 2
  br i1 %cond, label %5, label %3

3:                                                ; preds = %1
  %4 = zext i16 %2 to i32
  tail call void (i32, ptr, ...) @pmix_output(i32 noundef 0, ptr noundef nonnull @.str.6, i32 noundef %4) #15
  br label %5

5:                                                ; preds = %1, %3
  ret i1 false
}